(lp0
V "
p1
aV " 
p2
aV #
p3
aV (
p4
aV ,
p5
aV -
p6
aV .
p7
aV . 
p8
aV ..
p9
aV 1
p10
aV 2
p11
aV :
p12
aV ?
p13
aV a
p14
aV a 
p15
aV aa
p16
aV ab
p17
aV ac
p18
aV ad
p19
aV ag
p20
aV ai
p21
aV al
p22
aV am
p23
aV an
p24
aV ap
p25
aV ar
p26
aV as
p27
aV at
p28
aV au
p29
aV b
p30
aV ba
p31
aV be
p32
aV bh
p33
aV bi
p34
aV bj
p35
aV bo
p36
aV bu
p37
aV by
p38
aV c
p39
aV ca
p40
aV ch
p41
aV co
p42
aV d
p43
aV da
p44
aV de
p45
aV dh
p46
aV di
p47
aV do
p48
aV du
p49
aV e
p50
aV ek
p51
aV ev
p52
aV ex
p53
aV f
p54
aV fa
p55
aV fi
p56
aV fo
p57
aV fr
p58
aV g
p59
aV ga
p60
aV gh
p61
aV go
p62
aV gu
p63
aV h
p64
aV h 
p65
aV ha
p66
aV he
p67
aV hi
p68
aV ho
p69
aV hu
p70
aV i
p71
aV i 
p72
aV id
p73
aV im
p74
aV in
p75
aV is
p76
aV it
p77
aV j
p78
aV ja
p79
aV ji
p80
aV jo
p81
aV ju
p82
aV k
p83
aV k 
p84
aV ka
p85
aV ke
p86
aV kh
p87
aV ki
p88
aV ko
p89
aV kr
p90
aV ku
p91
aV ky
p92
aV l
p93
aV la
p94
aV le
p95
aV li
p96
aV lo
p97
aV m
p98
aV ma
p99
aV me
p100
aV mi
p101
aV mo
p102
aV mu
p103
aV n
p104
aV na
p105
aV ne
p106
aV ni
p107
aV no
p108
aV o
p109
aV of
p110
aV on
p111
aV or
p112
aV ou
p113
aV p
p114
aV pa
p115
aV pe
p116
aV ph
p117
aV pl
p118
aV po
p119
aV pr
p120
aV pu
p121
aV r
p122
aV ra
p123
aV re
p124
aV ri
p125
aV s
p126
aV sa
p127
aV se
p128
aV sh
p129
aV si
p130
aV so
p131
aV sp
p132
aV st
p133
aV su
p134
aV t
p135
aV ta
p136
aV te
p137
aV th
p138
aV ti
p139
aV to
p140
aV tr
p141
aV tu
p142
aV u
p143
aV un
p144
aV up
p145
aV us
p146
aV v
p147
aV va
p148
aV ve
p149
aV vi
p150
aV vo
p151
aV w
p152
aV wa
p153
aV we
p154
aV wh
p155
aV wi
p156
aV wo
p157
aV y
p158
aV ya
p159
aV ye
p160
aV yo
p161
aV z
p162
aV za
p163
aV |
p164
aV! 
p165
aV!!
p166
aV" 
p167
aV""
p168
aV's
p169
aV's 
p170
aV't
p171
aV't 
p172
aV) 
p173
aV, 
p174
aV- 
p175
aV--
p176
aV---
p177
aV. 
p178
aV..
p179
aV.. 
p180
aV...
p181
aV0 
p182
aV00
p183
aV000
p184
aV10
p185
aV20
p186
aV: 
p187
aV? 
p188
aV??
p189
aVa 
p190
aVa,
p191
aVa, 
p192
aVa.
p193
aVa. 
p194
aVa..
p195
aVaa
p196
aVaap
p197
aVaat
p198
aVab
p199
aVab 
p200
aVaba
p201
aVabh
p202
aVac
p203
aVach
p204
aVact
p205
aVad
p206
aVad 
p207
aVada
p208
aVade
p209
aVadh
p210
aVadi
p211
aVae
p212
aVaf
p213
aVag
p214
aVaga
p215
aVage
p216
aVah
p217
aVaha
p218
aVahe
p219
aVahi
p220
aVahu
p221
aVai
p222
aVai 
p223
aVai.
p224
aVail
p225
aVaim
p226
aVain
p227
aVais
p228
aVai|
p229
aVaj
p230
aVaja
p231
aVak
p232
aVak 
p233
aVaka
p234
aVake
p235
aVakh
p236
aVaki
p237
aVako
p238
aVakt
p239
aVal
p240
aVal 
p241
aVala
p242
aVale
p243
aVali
p244
aVall
p245
aValo
p246
aVam
p247
aVam 
p248
aVama
p249
aVamd
p250
aVame
p251
aVami
p252
aVamp
p253
aVan
p254
aVan 
p255
aVana
p256
aVand
p257
aVane
p258
aVang
p259
aVani
p260
aVann
p261
aVans
p262
aVant
p263
aVany
p264
aVao
p265
aVap
p266
aVap 
p267
aVapa
p268
aVapn
p269
aVapp
p270
aVar
p271
aVar 
p272
aVara
p273
aVard
p274
aVare
p275
aVari
p276
aVark
p277
aVarm
p278
aVarn
p279
aVaro
p280
aVart
p281
aVas
p282
aVas 
p283
aVasa
p284
aVase
p285
aVash
p286
aVast
p287
aVat
p288
aVat 
p289
aVata
p290
aVate
p291
aVath
p292
aVati
p293
aVatt
p294
aVau
p295
aVaur
p296
aVav
p297
aVava
p298
aVave
p299
aVaw
p300
aVay
p301
aVay 
p302
aVaya
p303
aVaye
p304
aVaz
p305
aVaza
p306
aVa\u093c
p307
aVb 
p308
aVba
p309
aVba 
p310
aVbaa
p311
aVbad
p312
aVbah
p313
aVbai
p314
aVban
p315
aVbar
p316
aVbas
p317
aVbat
p318
aVbe
p319
aVbe 
p320
aVbh
p321
aVbha
p322
aVbhi
p323
aVbi
p324
aVbj
p325
aVbjp
p326
aVbl
p327
aVbo
p328
aVbol
p329
aVbu
p330
aVbut
p331
aVby
p332
aVby 
p333
aVc 
p334
aVca
p335
aVcal
p336
aVcan
p337
aVcas
p338
aVcc
p339
aVce
p340
aVce 
p341
aVch
p342
aVch 
p343
aVcha
p344
aVche
p345
aVcho
p346
aVchu
p347
aVci
p348
aVck
p349
aVcl
p350
aVco
p351
aVcom
p352
aVcon
p353
aVcr
p354
aVct
p355
aVcti
p356
aVcu
p357
aVd 
p358
aVda
p359
aVda 
p360
aVdal
p361
aVdar
p362
aVday
p363
aVdd
p364
aVde
p365
aVde 
p366
aVdek
p367
aVden
p368
aVder
p369
aVdes
p370
aVdez
p371
aVdh
p372
aVdha
p373
aVdi
p374
aVdi 
p375
aVdia
p376
aVdin
p377
aVdiy
p378
aVdo
p379
aVdo 
p380
aVdon
p381
aVdr
p382
aVds
p383
aVdu
p384
aVe 
p385
aVe,
p386
aVe.
p387
aVe. 
p388
aVe..
p389
aVea
p390
aVear
p391
aVeas
p392
aVeat
p393
aVec
p394
aVect
p395
aVed
p396
aVed 
p397
aVee
p398
aVee 
p399
aVef
p400
aVeg
p401
aVega
p402
aVeh
p403
aVei
p404
aVej
p405
aVejr
p406
aVek
p407
aVeka
p408
aVekh
p409
aVel
p410
aVeli
p411
aVem
p412
aVem 
p413
aVen
p414
aVen 
p415
aVena
p416
aVeng
p417
aVent
p418
aVeo
p419
aVep
p420
aVer
p421
aVer 
p422
aVera
p423
aVere
p424
aVeri
p425
aVers
p426
aVes
p427
aVes 
p428
aVese
p429
aVesh
p430
aVess
p431
aVest
p432
aVet
p433
aVet 
p434
aVeta
p435
aVev
p436
aVeve
p437
aVew
p438
aVews
p439
aVex
p440
aVey
p441
aVey 
p442
aVez
p443
aVeza
p444
aVf 
p445
aVfa
p446
aVfe
p447
aVfi
p448
aVfo
p449
aVfor
p450
aVfr
p451
aVfro
p452
aVg 
p453
aVga
p454
aVga 
p455
aVgai
p456
aVgal
p457
aVgan
p458
aVgar
p459
aVgay
p460
aVge
p461
aVge 
p462
aVgh
p463
aVgha
p464
aVght
p465
aVgi
p466
aVgi 
p467
aVgo
p468
aVgoo
p469
aVgr
p470
aVgre
p471
aVgu
p472
aVh 
p473
aVha
p474
aVha 
p475
aVhad
p476
aVhah
p477
aVhai
p478
aVhak
p479
aVhal
p480
aVham
p481
aVhan
p482
aVhar
p483
aVhas
p484
aVhat
p485
aVhav
p486
aVhe
p487
aVhe 
p488
aVhem
p489
aVhen
p490
aVher
p491
aVhey
p492
aVhi
p493
aVhi 
p494
aVhim
p495
aVhin
p496
aVhir
p497
aVhis
p498
aVho
p499
aVho 
p500
aVhog
p501
aVhon
p502
aVhot
p503
aVhou
p504
aVhr
p505
aVht
p506
aVhu
p507
aVhut
p508
aVhy
p509
aVi 
p510
aVi,
p511
aVi, 
p512
aVi.
p513
aVi. 
p514
aVi..
p515
aVia
p516
aVia 
p517
aVian
p518
aVib
p519
aVic
p520
aVica
p521
aVid
p522
aVid 
p523
aVide
p524
aVie
p525
aVie 
p526
aVif
p527
aVig
p528
aVigh
p529
aVij
p530
aVik
p531
aVika
p532
aVike
p533
aVikh
p534
aVil
p535
aVila
p536
aVile
p537
aVill
p538
aVim
p539
aVim 
p540
aVima
p541
aVime
p542
aVin
p543
aVin 
p544
aVina
p545
aVind
p546
aVine
p547
aVing
p548
aVini
p549
aVins
p550
aVint
p551
aVio
p552
aVion
p553
aVip
p554
aVir
p555
aVir 
p556
aVira
p557
aVis
p558
aVis 
p559
aVisa
p560
aVise
p561
aVish
p562
aVisi
p563
aVist
p564
aVit
p565
aVit 
p566
aVita
p567
aVite
p568
aVith
p569
aViti
p570
aVity
p571
aViv
p572
aViva
p573
aVive
p574
aViw
p575
aViwa
p576
aViy
p577
aViya
p578
aViye
p579
aViyo
p580
aViz
p581
aVi|
p582
aVi| 
p583
aVj 
p584
aVja
p585
aVja 
p586
aVjab
p587
aVjai
p588
aVjan
p589
aVjar
p590
aVjat
p591
aVjay
p592
aVje
p593
aVjh
p594
aVji
p595
aVji 
p596
aVjo
p597
aVjo 
p598
aVjp
p599
aVjp 
p600
aVjr
p601
aVjri
p602
aVju
p603
aVk 
p604
aVka
p605
aVka 
p606
aVkah
p607
aVkam
p608
aVkar
p609
aVkat
p610
aVke
p611
aVke 
p612
aVkej
p613
aVkh
p614
aVkha
p615
aVki
p616
aVki 
p617
aVkin
p618
aVkis
p619
aVkiy
p620
aVko
p621
aVko 
p622
aVkoi
p623
aVkr
p624
aVks
p625
aVkt
p626
aVku
p627
aVkuc
p628
aVky
p629
aVkya
p630
aVl 
p631
aVla
p632
aVla 
p633
aVlag
p634
aVlan
p635
aVlat
p636
aVld
p637
aVld 
p638
aVle
p639
aVle 
p640
aVlea
p641
aVli
p642
aVli 
p643
aVlic
p644
aVlie
p645
aVlik
p646
aVlim
p647
aVlin
p648
aVlit
p649
aVliy
p650
aVll
p651
aVll 
p652
aVlle
p653
aVlo
p654
aVlo 
p655
aVlog
p656
aVls
p657
aVlt
p658
aVlu
p659
aVly
p660
aVly 
p661
aVm 
p662
aVma
p663
aVma 
p664
aVmai
p665
aVmam
p666
aVman
p667
aVmar
p668
aVmat
p669
aVmb
p670
aVmd
p671
aVme
p672
aVme 
p673
aVmem
p674
aVmen
p675
aVmer
p676
aVmg
p677
aVmi
p678
aVmil
p679
aVmin
p680
aVmk
p681
aVmm
p682
aVmo
p683
aVmod
p684
aVmp
p685
aVms
p686
aVmt
p687
aVmu
p688
aVmus
p689
aVn 
p690
aVn'
p691
aVn't
p692
aVn.
p693
aVn. 
p694
aVna
p695
aVna 
p696
aVnah
p697
aVnak
p698
aVnal
p699
aVnam
p700
aVnat
p701
aVnc
p702
aVnce
p703
aVnd
p704
aVnd 
p705
aVnda
p706
aVnde
p707
aVndi
p708
aVndu
p709
aVne
p710
aVne 
p711
aVnew
p712
aVng
p713
aVng 
p714
aVnge
p715
aVngr
p716
aVnh
p717
aVni
p718
aVni 
p719
aVnk
p720
aVnl
p721
aVnn
p722
aVnna
p723
aVno
p724
aVno 
p725
aVnot
p726
aVnow
p727
aVns
p728
aVns 
p729
aVnst
p730
aVnt
p731
aVnt 
p732
aVnte
p733
aVnu
p734
aVny
p735
aVny 
p736
aVo 
p737
aVo.
p738
aVob
p739
aVoc
p740
aVod
p741
aVod 
p742
aVodi
p743
aVof
p744
aVof 
p745
aVog
p746
aVoga
p747
aVoh
p748
aVoi
p749
aVoi 
p750
aVoin
p751
aVok
p752
aVol
p753
aVoli
p754
aVom
p755
aVom 
p756
aVome
p757
aVon
p758
aVon 
p759
aVona
p760
aVone
p761
aVong
p762
aVonl
p763
aVons
p764
aVoo
p765
aVood
p766
aVop
p767
aVor
p768
aVor 
p769
aVore
p770
aVort
p771
aVos
p772
aVost
p773
aVot
p774
aVot 
p775
aVota
p776
aVote
p777
aVoth
p778
aVou
p779
aVou 
p780
aVoul
p781
aVoun
p782
aVour
p783
aVout
p784
aVov
p785
aVove
p786
aVow
p787
aVow 
p788
aVp 
p789
aVpa
p790
aVpa 
p791
aVpai
p792
aVpak
p793
aVpan
p794
aVpar
p795
aVpat
p796
aVpe
p797
aVper
p798
aVph
p799
aVpha
p800
aVpi
p801
aVpl
p802
aVple
p803
aVpn
p804
aVpo
p805
aVpol
p806
aVpor
p807
aVpp
p808
aVpr
p809
aVpra
p810
aVpre
p811
aVpro
p812
aVps
p813
aVpt
p814
aVpu
p815
aVpur
p816
aVr 
p817
aVr.
p818
aVra
p819
aVra 
p820
aVrah
p821
aVraj
p822
aVrak
p823
aVram
p824
aVran
p825
aVrat
p826
aVrd
p827
aVre
p828
aVre 
p829
aVrea
p830
aVree
p831
aVrem
p832
aVres
p833
aVri
p834
aVri 
p835
aVris
p836
aVrit
p837
aVrk
p838
aVrm
p839
aVrn
p840
aVrna
p841
aVro
p842
aVro 
p843
aVrom
p844
aVrr
p845
aVrs
p846
aVrs 
p847
aVrt
p848
aVrt 
p849
aVrti
p850
aVru
p851
aVry
p852
aVry 
p853
aVs 
p854
aVs,
p855
aVs, 
p856
aVs.
p857
aVs. 
p858
aVsa
p859
aVsa 
p860
aVsab
p861
aVsak
p862
aVsal
p863
aVsam
p864
aVsan
p865
aVsar
p866
aVsat
p867
aVse
p868
aVse 
p869
aVsen
p870
aVsh
p871
aVsh 
p872
aVsha
p873
aVsho
p874
aVsi
p875
aVsi 
p876
aVsin
p877
aVsir
p878
aVsk
p879
aVsl
p880
aVsli
p881
aVsm
p882
aVso
p883
aVso 
p884
aVsp
p885
aVss
p886
aVss 
p887
aVst
p888
aVst 
p889
aVsta
p890
aVste
p891
aVsti
p892
aVsto
p893
aVstr
p894
aVsu
p895
aVt 
p896
aVt.
p897
aVta
p898
aVta 
p899
aVtak
p900
aVtal
p901
aVtan
p902
aVtar
p903
aVtat
p904
aVte
p905
aVte 
p906
aVted
p907
aVter
p908
aVth
p909
aVth 
p910
aVtha
p911
aVthe
p912
aVthi
p913
aVtho
p914
aVti
p915
aVti 
p916
aVtic
p917
aVtim
p918
aVtin
p919
aVtio
p920
aVtn
p921
aVto
p922
aVto 
p923
aVtor
p924
aVtr
p925
aVtra
p926
aVts
p927
aVts 
p928
aVtt
p929
aVtu
p930
aVtum
p931
aVty
p932
aVty 
p933
aVu 
p934
aVua
p935
aVub
p936
aVuc
p937
aVuch
p938
aVud
p939
aVue
p940
aVuj
p941
aVuk
p942
aVul
p943
aVula
p944
aVum
p945
aVuma
p946
aVun
p947
aVuna
p948
aVund
p949
aVup
p950
aVur
p951
aVur 
p952
aVura
p953
aVus
p954
aVus 
p955
aVusa
p956
aVuse
p957
aVusl
p958
aVust
p959
aVut
p960
aVut 
p961
aVuta
p962
aVv 
p963
aVva
p964
aVva 
p965
aVval
p966
aVvar
p967
aVve
p968
aVve 
p969
aVver
p970
aVvi
p971
aVvid
p972
aVvo
p973
aVw 
p974
aVwa
p975
aVwal
p976
aVwas
p977
aVwe
p978
aVwe 
p979
aVwh
p980
aVwha
p981
aVwho
p982
aVwi
p983
aVwil
p984
aVwit
p985
aVwo
p986
aVwor
p987
aVws
p988
aVy 
p989
aVy.
p990
aVya
p991
aVya 
p992
aVye
p993
aVye 
p994
aVyo
p995
aVyou
p996
aVyu
p997
aVza
p998
aVza 
p999
aV| 
p1000
a.