(lp0
V000
p1
aV10
p2
aV100
p3
aV11
p4
aV12
p5
aV15
p6
aV15000
p7
aV20
p8
aV2014
p9
aV25
p10
aV30
p11
aV46
p12
aV50
p13
aV50000
p14
aV60
p15
aV70
p16
aVa4
p17
aVaa
p18
aVaadmi
p19
aVaaj
p20
aVaam
p21
aVaap
p22
aVaapko
p23
aVab
p24
aVaba
p25
aVabe
p26
aVabhi
p27
aVaccept
p28
aVaccha
p29
aVacche
p30
aVacha
p31
aVaction
p32
aVactivate
p33
aVadami
p34
aVadd
p35
aVafreen
p36
aVagar
p37
aVagara
p38
aVage
p39
aVagent
p40
aVaggressione
p41
aVagree
p42
aVaisa
p43
aVaise
p44
aVaisi
p45
aVaiye
p46
aVaja
p47
aVak
p48
aVakhilesh
p49
aVallah
p50
aVama
p51
aVamerica
p52
aVandroid
p53
aVane
p54
aVanna
p55
aVannaji
p56
aVanti
p57
aVap
p58
aVapa
p59
aVapaka
p60
aVapake
p61
aVapaki
p62
aVapako
p63
aVapana
p64
aVapane
p65
aVapani
p66
aVapase
p67
aVapna
p68
aVapne
p69
aVapni
p70
aVapology
p71
aVapp
p72
aVappeal
p73
aVapps
p74
aVarmy
p75
aVarticle
p76
aVarvind
p77
aVata
p78
aVattack
p79
aVaur
p80
aVaura
p81
aVaya
p82
aVaye
p83
aVba
p84
aVbaad
p85
aVbaap
p86
aVbaar
p87
aVbaat
p88
aVbaba
p89
aVbad
p90
aVbada
p91
aVbadala
p92
aVbade
p93
aVbahubali
p94
aVbahut
p95
aVbahuta
p96
aVbaimka
p97
aVbaitha
p98
aVbaithe
p99
aVbaki
p100
aVbamda
p101
aVban
p102
aVbana
p103
aVbanana
p104
aVbanane
p105
aVbanaya
p106
aVband
p107
aVbane
p108
aVbank
p109
aVbar
p110
aVbara
p111
aVbare
p112
aVbas
p113
aVbasa
p114
aVbat
p115
aVbata
p116
aVbc
p117
aVbeef
p118
aVbelieve
p119
aVbengal
p120
aVbest
p121
aVbeta
p122
aVbete
p123
aVbetter
p124
aVbhagwan
p125
aVbhai
p126
aVbhajapa
p127
aVbhakt
p128
aVbhakta
p129
aVbhara
p130
aVbharat
p131
aVbharata
p132
aVbharatiya
p133
aVbhatt
p134
aVbhi
p135
aVbi
p136
aVbig
p137
aVbihar
p138
aVbihara
p139
aVbijepi
p140
aVbilkul
p141
aVbina
p142
aVbinding
p143
aVbirthday
p144
aVbjp
p145
aVblack
p146
aVbol
p147
aVbola
p148
aVbolo
p149
aVbot
p150
aVbura
p151
aVbusiness
p152
aVcahate
p153
aVcahie
p154
aVcala
p155
aVcalled
p156
aVcard
p157
aVcase
p158
aVcash
p159
aVchahiye
p160
aVchal
p161
aVchale
p162
aVchallenge
p163
aVchamp
p164
aVchampcash
p165
aVchange
p166
aVchannel
p167
aVcheck
p168
aVchina
p169
aVchor
p170
aVchristian
p171
aVchup
p172
aVchutiya
p173
aVcirculated
p174
aVclear
p175
aVclick
p176
aVcm
p177
aVcom
p178
aVcome
p179
aVcomment
p180
aVcomments
p181
aVcommunal
p182
aVcommunity
p183
aVcompany
p184
aVcomplete
p185
aVcongress
p186
aVcopy
p187
aVcorrect
p188
aVcorrupt
p189
aVcorruption
p190
aVcountries
p191
aVcountry
p192
aVcourt
p193
aVcow
p194
aVcrore
p195
aVcunava
p196
aVda
p197
aVdala
p198
aVdalit
p199
aVdalita
p200
aVday
p201
aVdays
p202
aVdear
p203
aVdeath
p204
aVdega
p205
aVdegi
p206
aVdekh
p207
aVdekha
p208
aVdekhane
p209
aVdekhem
p210
aVdekho
p211
aVdelhi
p212
aVdena
p213
aVdene
p214
aVdenge
p215
aVdesh
p216
aVdeta
p217
aVdete
p218
aVdeti
p219
aVdevelopment
p220
aVdeza
p221
aVdharm
p222
aVdharma
p223
aVdi
p224
aVdid
p225
aVdidn
p226
aVdie
p227
aVdifference
p228
aVdigital
p229
aVdikha
p230
aVdikhai
p231
aVdil
p232
aVdila
p233
aVdilli
p234
aVdimensions
p235
aVdin
p236
aVdina
p237
aVdiscussed
p238
aVdistorted
p239
aVditelsa
p240
aVdiya
p241
aVdiye
p242
aVdoes
p243
aVdoesn
p244
aVdoing
p245
aVdon
p246
aVdono
p247
aVdont
p248
aVdosto
p249
aVdostom
p250
aVdrama
p251
aVduniya
p252
aVdusare
p253
aVdusre
p254
aVdvara
p255
aVe0
p256
aVearn
p257
aVeducation
p258
aVek
p259
aVeka
p260
aVelection
p261
aVelections
p262
aVenglish
p263
aVevam
p264
aVevents
p265
aVevm
p266
aVexpect
p267
aVexpress
p268
aVfacebook
p269
aVfake
p270
aVfamily
p271
aVfather
p272
aVfatwa
p273
aVfeel
p274
aVfeku
p275
aVfight
p276
aVfilm
p277
aVfir
p278
aVfool
p279
aVforemost
p280
aVfounder
p281
aVfree
p282
aVfuture
p283
aVga
p284
aVgae
p285
aVgai
p286
aVgalat
p287
aVgalata
p288
aVgali
p289
aVgandhi
p290
aVgaya
p291
aVgaye
p292
aVgayi
p293
aVge
p294
aVghar
p295
aVghara
p296
aVghotale
p297
aVgirl
p298
aVgiven
p299
aVgiving
p300
aVgod
p301
aVgoing
p302
aVgoli
p303
aVgood
p304
aVgoogle
p305
aVgot
p306
aVgovernment
p307
aVgovt
p308
aVgreat
p309
aVgrounds
p310
aVguidelines
p311
aVgujarat
p312
aVgujrat
p313
aVguy
p314
aVgya
p315
aVgye
p316
aVha
p317
aVhahaha
p318
aVhai
p319
aVhaim
p320
aVhain
p321
aVhama
p322
aVhamare
p323
aVhamari
p324
aVhappy
p325
aVhar
p326
aVhara
p327
aVhard
p328
aVhate
p329
aVhatha
p330
aVhatya
p331
aVhazare
p332
aVheadlines
p333
aVhelp
p334
aVhey
p335
aVhi
p336
aVhigh
p337
aVhind
p338
aVhinda
p339
aVhindu
p340
aVhindus
p341
aVhindustan
p342
aVhistory
p343
aVhn
p344
aVho
p345
aVhoga
p346
aVhogi
p347
aVhome
p348
aVhona
p349
aVhone
p350
aVhope
p351
aVhota
p352
aVhote
p353
aVhoti
p354
aVhttp
p355
aVhttps
p356
aVhu
p357
aVhua
p358
aVhue
p359
aVhui
p360
aVhum
p361
aVhuman
p362
aVid
p363
aVimdiya
p364
aVimportant
p365
aVina
p366
aVinakama
p367
aVincome
p368
aVindia
p369
aVindian
p370
aVinstall
p371
aVinvestigation
p372
aVinvestment
p373
aVisa
p374
aVisaka
p375
aVisake
p376
aVisalie
p377
aVisase
p378
aVise
p379
aVisi
p380
aVislam
p381
aVislamic
p382
aVisliye
p383
aVisrael
p384
aViss
p385
aVissue
p386
aVissued
p387
aVissues
p388
aVistipha
p389
aVitana
p390
aVitna
p391
aViye
p392
aVja
p393
aVjaan
p394
aVjab
p395
aVjaba
p396
aVjae
p397
aVjaega
p398
aVjagaha
p399
aVjaha
p400
aVjai
p401
aVjaisa
p402
aVjaise
p403
aVjaisi
p404
aVjana
p405
aVjanata
p406
aVjanate
p407
aVjane
p408
aVjanta
p409
aVjao
p410
aVjarurata
p411
aVjaruri
p412
aVjata
p413
aVjate
p414
aVjati
p415
aVjawan
p416
aVjay
p417
aVjaya
p418
aVjaye
p419
aVjayega
p420
aVjayegi
p421
aVjeet
p422
aVji
p423
aVjina
p424
aVjis
p425
aVjisa
p426
aVjise
p427
aVjita
p428
aVjnu
p429
aVjo
p430
aVjob
p431
aVjoin
p432
aVjoined
p433
aVjoining
p434
aVjournalists
p435
aVjuda
p436
aVjurist
p437
aVjust
p438
aVjustice
p439
aVjyada
p440
aVka
p441
aVkaam
p442
aVkab
p443
aVkaba
p444
aVkabhi
p445
aVkaha
p446
aVkahan
p447
aVkahate
p448
aVkahi
p449
aVkai
p450
aVkaise
p451
aVkala
p452
aVkam
p453
aVkama
p454
aVkamana
p455
aVkamane
p456
aVkamaye
p457
aVkamgresa
p458
aVkampani
p459
aVkangana
p460
aVkanhaiya
p461
aVkapil
p462
aVkar
p463
aVkara
p464
aVkarake
p465
aVkaran
p466
aVkarana
p467
aVkarane
p468
aVkarata
p469
aVkarate
p470
aVkare
p471
aVkarega
p472
aVkarem
p473
aVkaremge
p474
aVkariye
p475
aVkarke
p476
aVkarna
p477
aVkarne
p478
aVkaro
p479
aVkaroda
p480
aVkarta
p481
aVkarte
p482
aVkashmir
p483
aVkaun
p484
aVkauna
p485
aVke
p486
aVkejarivala
p487
aVkejri
p488
aVkejriwal
p489
aVkerala
p490
aVkey
p491
aVkha
p492
aVkhabar
p493
aVkhabara
p494
aVkhali
p495
aVkhan
p496
aVkhana
p497
aVkharca
p498
aVkhatam
p499
aVkhate
p500
aVkhatma
p501
aVkhilaf
p502
aVkhilapha
p503
aVkhud
p504
aVkhuda
p505
aVkhush
p506
aVki
p507
aVkijiye
p508
aVkill
p509
aVkilled
p510
aVkilling
p511
aVkis
p512
aVkisa
p513
aVkisi
p514
aVkitna
p515
aVkitne
p516
aVkiya
p517
aVkiye
p518
aVknow
p519
aVknows
p520
aVko
p521
aVkoi
p522
aVkon
p523
aVkr
p524
aVkrne
p525
aVkro
p526
aVkrte
p527
aVkuch
p528
aVkucha
p529
aVkuchh
p530
aVkumar
p531
aVkumara
p532
aVkunder
p533
aVkutta
p534
aVkutte
p535
aVkya
p536
aVkyo
p537
aVkyom
p538
aVkyomki
p539
aVkyu
p540
aVla
p541
aVlada
p542
aVlaga
p543
aVlagane
p544
aVlagata
p545
aVlage
p546
aVlagta
p547
aVlakha
p548
aVlalu
p549
aVlanguage
p550
aVlavel
p551
aVle
p552
aVleader
p553
aVleaders
p554
aVleaflet
p555
aVleft
p556
aVlegal
p557
aVlekara
p558
aVlekin
p559
aVlekina
p560
aVlem
p561
aVlena
p562
aVlet
p563
aVlete
p564
aVlevel
p565
aVlie
p566
aVlife
p567
aVlike
p568
aVlikha
p569
aVlikho
p570
aVline
p571
aVlink
p572
aVlive
p573
aVliving
p574
aVliya
p575
aVliye
p576
aVlo
p577
aVlog
p578
aVloga
p579
aVlogo
p580
aVlogom
p581
aVlogon
p582
aVlokpal
p583
aVlol
p584
aVlong
p585
aVlook
p586
aVlost
p587
aVlove
p588
aVma
p589
aVmaa
p590
aVmahina
p591
aVmahine
p592
aVmai
p593
aVmaim
p594
aVmain
p595
aVmajority
p596
aVmake
p597
aVmaking
p598
aVmam
p599
aVmamale
p600
aVmamtri
p601
aVman
p602
aVmana
p603
aVmanner
p604
aVmar
p605
aVmara
p606
aVmare
p607
aVmaro
p608
aVmat
p609
aVmata
p610
aVmatter
p611
aVmauka
p612
aVmcd
p613
aVmeans
p614
aVmedia
p615
aVmein
p616
aVmem
p617
aVmember
p618
aVmen
p619
aVmera
p620
aVmere
p621
aVmeri
p622
aVmerit
p623
aVmidiya
p624
aVmil
p625
aVmila
p626
aVmile
p627
aVmilega
p628
aVmind
p629
aVminister
p630
aVmisinterpret
p631
aVmistake
p632
aVmobaila
p633
aVmobile
p634
aVmodi
p635
aVmodiji
p636
aVmoney
p637
aVmr
p638
aVmufti
p639
aVmuh
p640
aVmujhe
p641
aVmumbai
p642
aVmusalamana
p643
aVmuslim
p644
aVmuslima
p645
aVmuslims
p646
aVna
p647
aVnaam
p648
aVnahi
p649
aVnahid
p650
aVnahim
p651
aVnai
p652
aVnaksali
p653
aVnama
p654
aVnambara
p655
aVnation
p656
aVnational
p657
aVnd
p658
aVndtv
p659
aVne
p660
aVneed
p661
aVneeds
p662
aVneta
p663
aVnetao
p664
aVnew
p665
aVnews
p666
aVnhi
p667
aVni
p668
aVnice
p669
aVnikala
p670
aVnimda
p671
aVninda
p672
aVnon
p673
aVnote
p674
aVnumber
p675
aVold
p676
aVom
p677
aVona
p678
aVonline
p679
aVopen
p680
aVopinion
p681
aVora
p682
aVpa
p683
aVpada
p684
aVpadha
p685
aVpahale
p686
aVpahali
p687
aVpahle
p688
aVpaid
p689
aVpaida
p690
aVpaisa
p691
aVpaise
p692
aVpakistan
p693
aVpakistana
p694
aVpakistani
p695
aVpani
p696
aVpar
p697
aVpara
p698
aVparivara
p699
aVparti
p700
aVparties
p701
aVparty
p702
aVpasa
p703
aVpass
p704
aVpata
p705
aVpatni
p706
aVpe
p707
aVpeace
p708
aVpehle
p709
aVpeople
p710
aVpepara
p711
aVperson
p712
aVpha
p713
aVphir
p714
aVphira
p715
aVphone
p716
aVphri
p717
aVpiche
p718
aVpita
p719
aVplay
p720
aVplz
p721
aVpm
p722
aVpolice
p723
aVpolitical
p724
aVpoliticians
p725
aVpolitics
p726
aVpoor
p727
aVpost
p728
aVpower
p729
aVpr
p730
aVpractices
p731
aVpradhanamamtri
p732
aVpratyeka
p733
aVprepared
p734
aVpresent
p735
aVpresented
p736
aVpresident
p737
aVproblem
p738
aVproper
p739
aVpta
p740
aVpublic
p741
aVpucha
p742
aVpuchega
p743
aVpunjab
p744
aVpura
p745
aVpure
p746
aVpuri
p747
aVpyara
p748
aVqualified
p749
aVquestion
p750
aVraha
p751
aVrahe
p752
aVrahega
p753
aVrahi
p754
aVraho
p755
aVrahul
p756
aVraj
p757
aVraja
p758
aVrajaniti
p759
aVrajniti
p760
aVrajya
p761
aVrakha
p762
aVram
p763
aVravish
p764
aVraviza
p765
aVread
p766
aVreal
p767
aVreally
p768
aVreason
p769
aVrefer
p770
aVreligion
p771
aVreligious
p772
aVreport
p773
aVrequest
p774
aVresearch
p775
aVrespect
p776
aVrha
p777
aVrhe
p778
aVright
p779
aVrohit
p780
aVrs
p781
aVrss
p782
aVrupa
p783
aVrupaya
p784
aVrupaye
p785
aVsa
p786
aVsaal
p787
aVsaath
p788
aVsab
p789
aVsaba
p790
aVsabase
p791
aVsabhi
p792
aVsabse
p793
aVsaca
p794
aVsach
p795
aVsad
p796
aVsahi
p797
aVsaid
p798
aVsakata
p799
aVsakate
p800
aVsakati
p801
aVsake
p802
aVsakta
p803
aVsakte
p804
aVsala
p805
aVsale
p806
aVsalo
p807
aVsamajh
p808
aVsamajha
p809
aVsamane
p810
aVsamasya
p811
aVsamaya
p812
aVsamudaya
p813
aVsanghi
p814
aVsara
p815
aVsarakara
p816
aVsare
p817
aVsari
p818
aVsarkar
p819
aVsath
p820
aVsatha
p821
aVsatta
p822
aVsaudi
p823
aVsavala
p824
aVsay
p825
aVsays
p826
aVsb
p827
aVschool
p828
aVse
p829
aVseat
p830
aVsecular
p831
aVsecularism
p832
aVseen
p833
aVsena
p834
aVsend
p835
aVsensational
p836
aVshah
p837
aVshame
p838
aVshare
p839
aVsharma
p840
aVshirish
p841
aVsi
p842
aVsign
p843
aVsigned
p844
aVsignup
p845
aVsikhs
p846
aVsimha
p847
aVsinger
p848
aVsingh
p849
aVsir
p850
aVsirf
p851
aVsirpha
p852
aVsoch
p853
aVsocial
p854
aVsolution
p855
aVsorry
p856
aVsp
p857
aVspeak
p858
aVsponser
p859
aVsponsor
p860
aVsri
p861
aVstand
p862
aVstar
p863
aVstart
p864
aVstarted
p865
aVstate
p866
aVstatement
p867
aVstates
p868
aVstop
p869
aVstore
p870
aVstory
p871
aVstupid
p872
aVsupport
p873
aVta
p874
aVtab
p875
aVtaba
p876
aVtabhi
p877
aVtak
p878
aVtaka
p879
aVtaken
p880
aVtaking
p881
aVtalk
p882
aVtalking
p883
aVtarah
p884
aVtaraha
p885
aVtarapha
p886
aVteam
p887
aVtera
p888
aVtere
p889
aVteri
p890
aVterror
p891
aVterrorist
p892
aVtha
p893
aVthanks
p894
aVthi
p895
aVthika
p896
aVthing
p897
aVthings
p898
aVthink
p899
aVtho
p900
aVthought
p901
aVtill
p902
aVtima
p903
aVtime
p904
aVtk
p905
aVtoday
p906
aVtoh
p907
aVtrue
p908
aVtrust
p909
aVtruth
p910
aVtry
p911
aVtu
p912
aVtujhe
p913
aVtum
p914
aVtuma
p915
aVtumhare
p916
aVtumhari
p917
aVtv
p918
aVuna
p919
aVunable
p920
aVunaka
p921
aVunake
p922
aVunaki
p923
aVunderstand
p924
aVunhe
p925
aVunhem
p926
aVunke
p927
aVunki
p928
aVunko
p929
aVunlimited
p930
aVupcoming
p931
aVur
p932
aVusa
p933
aVusaka
p934
aVusake
p935
aVuse
p936
aVused
p937
aVusi
p938
aVuska
p939
aVuske
p940
aVusko
p941
aVva
p942
aVvada
p943
aVvaha
p944
aVvaham
p945
aVvahi
p946
aVvaise
p947
aVvala
p948
aVvale
p949
aVvali
p950
aVve
p951
aVvideo
p952
aVvidhanasabha
p953
aVvidiyo
p954
aVview
p955
aVvikasa
p956
aVvirodha
p957
aVvishwas
p958
aVvizvasa
p959
aVvo
p960
aVvota
p961
aVvote
p962
aVwala
p963
aVwale
p964
aVwali
p965
aVwalo
p966
aVwant
p967
aVwatch
p968
aVway
p969
aVwhatsapp
p970
aVwin
p971
aVwo
p972
aVwoh
p973
aVwomen
p974
aVwon
p975
aVword
p976
aVwords
p977
aVwork
p978
aVworking
p979
aVworld
p980
aVwrite
p981
aVwrong
p982
aVwww
p983
aVya
p984
aVyada
p985
aVyadi
p986
aVyaha
p987
aVyahi
p988
aVye
p989
aVyear
p990
aVyears
p991
aVyeh
p992
aVyes
p993
aVyogi
p994
aVyoutube
p995
aVyupi
p996
aVzahida
p997
aVzarma
p998
aVzero
p999
aVzuru
p1000
a.