(lp1
(lp2
S'ke'
p3
aS'lie'
p4
aS'liye'
p5
aS'para'
p6
aS'satha'
p7
aa(lp8
S'bjp'
p9
aS'joined'
p10
aS'mcd'
p11
aS'did'
p12
aS'power'
p13
aa(lp14
S'good'
p15
aS'job'
p16
aS'share'
p17
aS'development'
p18
aS'issue'
p19
aa(lp20
S'hi'
p21
aS'aise'
p22
aS'hona'
p23
aS'tha'
p24
aS'koi'
p25
aa(lp26
S'hai'
p27
aS'jo'
p28
aS'jata'
p29
aS'hota'
p30
aS'sirf'
p31
aa(lp32
S'anna'
p33
aS'drama'
p34
aS'political'
p35
aS'lost'
p36
aS'gaye'
p37
aa(lp38
S'ko'
p39
aS'logo'
p40
aS'dena'
p41
aS'apni'
p42
aS'apne'
p43
aa(lp44
S'ki'
p45
aS'thi'
p46
aS'maa'
p47
aS'kisi'
p48
aS'baat'
p49
aa(lp50
S'india'
p51
aS'big'
p52
aS'new'
p53
aS'pm'
p54
aS'minister'
p55
aa(lp56
S'nice'
p57
aS'article'
p58
aS'question'
p59
aS'ga'
p60
aS'google'
p61
aa(lp62
S'ka'
p63
aS'gaya'
p64
aS'hua'
p65
aS'koi'
p66
aS'tha'
p67
aa(lp68
S'modi'
p69
aS'pm'
p70
aS'bhakt'
p71
aS'har'
p72
aS'raj'
p73
aa(lp74
S'rss'
p75
aS'hindus'
p76
aS'secular'
p77
aS'kerala'
p78
aS'look'
p79
aa(lp80
S'work'
p81
aS'mcd'
p82
aS'corruption'
p83
aS'elections'
p84
aS'years'
p85
aa(lp86
S'happy'
p87
aS'birthday'
p88
aS'mam'
p89
aS'new'
p90
aS'feel'
p91
aa(lp92
S'aap'
p93
aS'sath'
p94
aS'power'
p95
aS'apne'
p96
aS'joining'
p97
aa(lp98
S'kiya'
p99
aS'acha'
p100
aS'ne'
p101
aS'punjab'
p102
aS'tho'
p103
aa(lp104
S'se'
p105
aS'par'
p106
aS'kam'
p107
aS'nahim'
p108
aS'logo'
p109
aa(lp110
S'kya'
p111
aS'hua'
p112
aS'tha'
p113
aS'pata'
p114
aS'bata'
p115
aa(lp116
S'kejriwal'
p117
aS'arvind'
p118
aS'politics'
p119
aS'comments'
p120
aS'better'
p121
aa(lp122
S'https'
p123
aS'com'
p124
aS'facebook'
p125
aS'www'
p126
aS'story'
p127
aa(lp128
S'ho'
p129
aS'gaya'
p130
aS'rahe'
p131
aS'gaye'
p132
aS'gai'
p133
aa(lp134
S'indian'
p135
aS'express'
p136
aS'didn'
p137
aS'comment'
p138
aS'tk'
p139
aa(lp140
S'bhai'
p141
aS'baat'
p142
aS'mat'
p143
aS'hu'
p144
aS'kon'
p145
aa(lp146
S'bhi'
p147
aS'kuchh'
p148
aS'lo'
p149
aS'vo'
p150
aS'kisi'
p151
aa(lp152
S'ha'
p153
aS'mata'
p154
aS'sa'
p155
aS'liye'
p156
aS'pata'
p157
aa(lp158
S'nahi'
p159
aS'koi'
p160
aS'main'
p161
aS'hota'
p162
aS'par'
p163
aa(lp164
S'right'
p165
aS'wrong'
p166
aS'joining'
p167
aS'did'
p168
aS'think'
p169
aa(lp170
S'news'
p171
aS'channel'
p172
aS'ndtv'
p173
aS'fake'
p174
aS'khabar'
p175
aa(lp176
S'like'
p177
aS'guy'
p178
aS'shame'
p179
aS'kangana'
p180
aS'paid'
p181
aa(lp182
S'ye'
p183
aS'kab'
p184
aS'bata'
p185
aS'rha'
p186
aS'bana'
p187
aa(lp188
S'ji'
p189
aS'rohit'
p190
aS'ravish'
p191
aS'ram'
p192
aS'ninda'
p193
aa(lp194
S'yes'
p195
aS'did'
p196
aS'poor'
p197
aS'joined'
p198
aS'big'
p199
aa(lp200
S'jai'
p201
aS'hind'
p202
aS'bharat'
p203
aS'mata'
p204
aS'jay'
p205
aa(lp206
S'ne'
p207
aS'tha'
p208
aS'diya'
p209
aS'di'
p210
aS'kaha'
p211
aa(lp212
S'aur'
p213
aS'pe'
p214
aS'kr'
p215
aS'kitna'
p216
aS'mein'
p217
aa(lp218
S'said'
p219
aS'police'
p220
aS'google'
p221
aS'country'
p222
aS'line'
p223
aa(lp224
S'hain'
p225
aS'par'
p226
aS'mein'
p227
aS'jo'
p228
aS'rahe'
p229
aa(lp230
S'fatwa'
p231
aS'appeal'
p232
aS'opinion'
p233
aS'journalists'
p234
aS'religious'
p235
aa(lp236
S'sahi'
p237
aS'kaha'
p238
aS'bilkul'
p239
aS'baat'
p240
aS'bata'
p241
aa(lp242
S'party'
p243
aS'come'
p244
aS'political'
p245
aS'aam'
p246
aS'corrupt'
p247
aa(lp248
S'sir'
p249
aS'correct'
p250
aS'action'
p251
aS'kam'
p252
aS'hamare'
p253
aa(lp254
S'man'
p255
aS'old'
p256
aS'think'
p257
aS'poor'
p258
aS'drama'
p259
aa(lp260
S'ab'
p261
aS'sarkar'
p262
aS'feku'
p263
aS'khatam'
p264
aS'gaye'
p265
aa(lp266
S'election'
p267
aS'started'
p268
aS'way'
p269
aS'mcd'
p270
aS'words'
p271
aa(lp272
S'nhi'
p273
aS'koi'
p274
aS'rhe'
p275
aS'wo'
p276
aS'jo'
p277
aa(lp278
S'na'
p279
aS'koi'
p280
aS'thi'
p281
aS'kisi'
p282
aS'khuda'
p283
aa(lp284
S'lol'
p285
aS'rahul'
p286
aS'china'
p287
aS'help'
p288
aS'going'
p289
aa(lp290
S'zuru'
p291
aS'hatha'
p292
aS'history'
p293
aS'hindustan'
p294
aS'hindus'
p295
aa(lp296
S'congress'
p297
aS'sp'
p298
aS'government'
p299
aS'given'
p300
aS'corruption'
p301
aa(lp302
S'media'
p303
aS'paid'
p304
aS'trying'
p305
aS'social'
p306
aS'political'
p307
aa(lp308
S'tu'
p309
aS'ja'
p310
aS'tere'
p311
aS'apni'
p312
aS'mat'
p313
aa(lp314
S'time'
p315
aS'long'
p316
aS'thi'
p317
aS'money'
p318
aS'kitna'
p319
aa(lp320
S'govt'
p321
aS'shame'
p322
aS'action'
p323
aS'aggressione'
p324
aS'corrupt'
p325
aa(lp326
S'evm'
p327
aS'jeet'
p328
aS'baar'
p329
aS'tab'
p330
aS'used'
p331
aa(lp332
S'secularism'
p333
aS'country'
p334
aS'religion'
p335
aS'secular'
p336
aS'hindus'
p337
aa(lp338
S'kar'
p339
aS'rahe'
p340
aS'liye'
p341
aS'bas'
p342
aS'lo'
p343
aa(lp344
S'delhi'
p345
aS'cm'
p346
aS'years'
p347
aS'mcd'
p348
aS'police'
p349
aa(lp350
S'http'
p351
aS'ndtv'
p352
aS'com'
p353
aS'khabar'
p354
aS'dekhem'
p355
aa(lp356
S'vote'
p357
aS'trust'
p358
aS'sp'
p359
aS'bank'
p360
aS'mcd'
p361
aa(lp362
S'agent'
p363
aS'isi'
p364
aS'nation'
p365
aS'sale'
p366
aS'social'
p367
aa(lp368
S'just'
p369
aS'ur'
p370
aS'politics'
p371
aS'money'
p372
aS'come'
p373
aa(lp374
S'join'
p375
aS'better'
p376
aS'whatsapp'
p377
aS'ur'
p378
aS'type'
p379
aa(lp380
S'raha'
p381
aS'kara'
p382
aS'ja'
p383
aS'jo'
p384
aS'hu'
p385
aa(lp386
S'desh'
p387
aS'liye'
p388
aS'bhakt'
p389
aS'apna'
p390
aS'sri'
p391
aa(lp392
S'best'
p393
aS'cm'
p394
aS'mr'
p395
aS'film'
p396
aS'minister'
p397
aa(lp398
S'true'
p399
aS'100'
p400
aS'key'
p401
aS'issues'
p402
aS'needs'
p403
aa(lp404
S'love'
p405
aS'kangana'
p406
aS'try'
p407
aS'solution'
p408
aS'vizvasa'
p409
aa(lp410
S'singh'
p411
aS'plz'
p412
aS'says'
p413
aS'rahul'
p414
aS'ninda'
p415
aa(lp416
S'zuru'
p417
aS'hatha'
p418
aS'history'
p419
aS'hindustan'
p420
aS'hindus'
p421
aa(lp422
S'para'
p423
aS'id'
p424
aS'job'
p425
aS'apane'
p426
aS'app'
p427
aa(lp428
S'pakistan'
p429
aS'attack'
p430
aS'kashmir'
p431
aS'killed'
p432
aS'banaya'
p433
aa(lp434
S'aura'
p435
aS'haim'
p436
aS'para'
p437
aS'nahim'
p438
aS'eka'
p439
aa(lp440
S'ek'
p441
aS'baat'
p442
aS'baar'
p443
aS'bar'
p444
aS'main'
p445
aa(lp446
S'great'
p447
aS'power'
p448
aS'dear'
p449
aS'khan'
p450
aS'black'
p451
aa(lp452
S'log'
p453
aS'tum'
p454
aS'karte'
p455
aS'jab'
p456
aS'wo'
p457
aa(lp458
S'tak'
p459
aS'aaj'
p460
aS'jab'
p461
aS'bot'
p462
aS'kab'
p463
aa(lp464
S'kuch'
p465
aS'karo'
p466
aS'kro'
p467
aS'sakta'
p468
aS'sirf'
p469
aa(lp470
S'lokpal'
p471
aS'hua'
p472
aS'political'
p473
aS'government'
p474
aS'corruption'
p475
aa(lp476
S'kumar'
p477
aS'ravish'
p478
aS'vishwas'
p479
aS'apna'
p480
aS'things'
p481
aa(lp482
S'hazare'
p483
aS'mr'
p484
aS'corruption'
p485
aS'person'
p486
aS'joined'
p487
aa(lp488
S'ya'
p489
aS'koi'
p490
aS'fir'
p491
aS'hogi'
p492
aS'dete'
p493
aa(lp494
S'chahiye'
p495
aS'karna'
p496
aS'dena'
p497
aS'hona'
p498
aS'agar'
p499
aa(lp500
S'hoga'
p501
aS'pata'
p502
aS'mil'
p503
aS'wala'
p504
aS'jaisa'
p505
aa(lp506
S'really'
p507
aS'word'
p508
aS'thought'
p509
aS'got'
p510
aS'does'
p511
aa(lp512
S'chutiya'
p513
aS'bhakt'
p514
aS'hua'
p515
aS'mcd'
p516
aS'chal'
p517
aa(lp518
S'sab'
p519
aS'raho'
p520
aS'phir'
p521
aS'lagta'
p522
aS'ninda'
p523
aa(lp524
S'day'
p525
aS'public'
p526
aS'hahaha'
p527
aS'pm'
p528
aS'rs'
p529
aa(lp530
S'yeh'
p531
aS'mein'
p532
aS'kaun'
p533
aS'toh'
p534
aS'tha'
p535
aa(lp536
S'need'
p537
aS'religion'
p538
aS'does'
p539
aS'lost'
p540
aS'know'
p541
aa(lp542
S'god'
p543
aS'nation'
p544
aS'hahaha'
p545
aS'christian'
p546
aS'america'
p547
aa(lp548
S'mem'
p549
aS'kara'
p550
aS'eka'
p551
aS'dilli'
p552
aS'ja'
p553
aa(lp554
S'chor'
p555
aS'sale'
p556
aS'kutta'
p557
aS'school'
p558
aS'sath'
p559
aa(lp560
S'army'
p561
aS'government'
p562
aS'kashmir'
p563
aS'indian'
p564
aS'world'
p565
aa(lp566
S'don'
p567
aS'know'
p568
aS'want'
p569
aS'believe'
p570
aS'think'
p571
aa(lp572
S'sala'
p573
aS'kutta'
p574
aS'abe'
p575
aS'tha'
p576
aS'isa'
p577
aa(lp578
S'people'
p579
aS'say'
p580
aS'mind'
p581
aS'hindus'
p582
aS'state'
p583
aa(lp584
S'ak'
p585
aS'make'
p586
aS'attack'
p587
aS'correct'
p588
aS'stupid'
p589
aa(lp590
S'video'
p591
aS'watch'
p592
aS'shame'
p593
aS'stupid'
p594
aS'youtube'
p595
aa(lp596
S'hindu'
p597
aS'muslim'
p598
aS'anti'
p599
aS'hindus'
p600
aS'kerala'
p601
aa(lp602
S'bharat'
p603
aS'ki'
p604
aS'kya'
p605
aS'ye'
p606
aS'mata'
p607
aa(lp608
S'good'
p609
aS'sir'
p610
aS'agent'
p611
aS'chor'
p612
aS'walo'
p613
aa(lp614
S'party'
p615
aS'vote'
p616
aS'evm'
p617
aS'politics'
p618
aS'public'
p619
aa(lp620
S'kitana'
p621
aS'hai'
p622
aS'se'
p623
aS'sarakara'
p624
aS'kharca'
p625
aa(lp626
S'ap'
p627
aS'baki'
p628
aS'hain'
p629
aS'kuch'
p630
aS'rahe'
p631
aa(lp632
S'tha'
p633
aS'tu'
p634
aS'ja'
p635
aS'10'
p636
aS'mara'
p637
aa(lp638
S'happy'
p639
aS'birthday'
p640
aS'desh'
p641
aS'nhi'
p642
aS'janata'
p643
aa(lp644
S'change'
p645
aS'khud'
p646
aS'hum'
p647
aS'abe'
p648
aS'tera'
p649
aa(lp650
S'yes'
p651
aS'hey'
p652
aS'needs'
p653
aS'thing'
p654
aS'stand'
p655
aa(lp656
S'man'
p657
aS'great'
p658
aS'does'
p659
aS'sorry'
p660
aS'says'
p661
aa(lp662
S'ki'
p663
aS'hai'
p664
aS'baat'
p665
aS'sab'
p666
aS'ek'
p667
aa(lp668
S'power'
p669
aS'development'
p670
aS'itna'
p671
aS'kill'
p672
aS'muslim'
p673
aa(lp674
S'kangana'
p675
aS'appeal'
p676
aS'distorted'
p677
aS'misinterpret'
p678
aS'sensational'
p679
aa(lp680
S'jata'
p681
aS'wale'
p682
aS'apna'
p683
aS'kisi'
p684
aS'hai'
p685
aa(lp686
S'likho'
p687
aS'dono'
p688
aS'sarakara'
p689
aS'rahi'
p690
aS'sarkar'
p691
aa(lp692
S'si'
p693
aS'ko'
p694
aS'appeal'
p695
aS'issued'
p696
aS'salo'
p697
aa(lp698
S'60'
p699
aS'years'
p700
aS'india'
p701
aS'think'
p702
aS've'
p703
aa(lp704
S'dena'
p705
aS'bana'
p706
aS'hard'
p707
aS'jaya'
p708
aS'sare'
p709
aa(lp710
S'birthday'
p711
aS'happy'
p712
aS'ram'
p713
aS'rahe'
p714
aS'dusare'
p715
aa(lp716
S'nhi'
p717
aS'aur'
p718
aS'se'
p719
aS'hai'
p720
aS'bol'
p721
aa(lp722
S'challenge'
p723
aS'afreen'
p724
aS'vo'
p725
aS'bhai'
p726
aS'karemge'
p727
aa(lp728
S'big'
p729
aS'company'
p730
aS'e0'
p731
aS'a4'
p732
aS'http'
p733
aa(lp734
S'bhai'
p735
aS'aggressione'
p736
aS'ko'
p737
aS'shirish'
p738
aS'nahi'
p739
aa(lp740
S'whatsapp'
p741
aS'ga'
p742
aS'digital'
p743
aS'hu'
p744
aS'yadi'
p745
aa(lp746
S'khana'
p747
aS'na'
p748
aS'ka'
p749
aS'se'
p750
aS'paisa'
p751
aa(lp752
S'killing'
p753
aS'talking'
p754
aS'start'
p755
aS'happy'
p756
aS'birthday'
p757
aa(lp758
S'indian'
p759
aS'express'
p760
aS'army'
p761
aS'ur'
p762
aS'think'
p763
aa(lp764
S'birthday'
p765
aS'happy'
p766
aS'lekina'
p767
aS'netao'
p768
aS'religion'
p769
aa(lp770
S'rahul'
p771
aS'politics'
p772
aS'dil'
p773
aS'wala'
p774
aS'feku'
p775
aa(lp776
S'fatwa'
p777
aS'teri'
p778
aS'mar'
p779
aS'tujhe'
p780
aS'goli'
p781
aa(lp782
S'padha'
p783
aS'ne'
p784
aS'hai'
p785
aS'koi'
p786
aS'rss'
p787
aa(lp788
S'yada'
p789
aS'sad'
p790
aS'khabara'
p791
aS'difference'
p792
aS'sri'
p793
aa(lp794
S'hahaha'
p795
aS'day'
p796
aS'kejri'
p797
aS'working'
p798
aS'guy'
p799
aa(lp800
S'appeal'
p801
aS'nahid'
p802
aS'journalists'
p803
aS'foremost'
p804
aS'leaflet'
p805
aa(lp806
S'hazare'
p807
aS'govt'
p808
aS'political'
p809
aS'lokpal'
p810
aS'corruption'
p811
aa(lp812
S'make'
p813
aS'isase'
p814
aS'open'
p815
aS'pahle'
p816
aS'life'
p817
aa(lp818
S'bjp'
p819
aS'aap'
p820
aS'rss'
p821
aS'congress'
p822
aS'kejriwal'
p823
aa(lp824
S'se'
p825
aS'ko'
p826
aS'ho'
p827
aS'kar'
p828
aS'ki'
p829
aa(lp830
S'ghotale'
p831
aS'ge'
p832
aS'tak'
p833
aS'dil'
p834
aS'ye'
p835
aa(lp836
S'birthday'
p837
aS'happy'
p838
aS'english'
p839
aS'cala'
p840
aS'won'
p841
aa(lp842
S'birthday'
p843
aS'happy'
p844
aS'today'
p845
aS'working'
p846
aS'use'
p847
aa(lp848
S'nice'
p849
aS'khan'
p850
aS'article'
p851
aS'kunder'
p852
aS'naksali'
p853
aa(lp854
S'best'
p855
aS'support'
p856
aS'shame'
p857
aS'respect'
p858
aS'bahubali'
p859
aa(lp860
S'kya'
p861
aS'ya'
p862
aS'pata'
p863
aS'abhi'
p864
aS'hai'
p865
aa(lp866
S'bol'
p867
aS'jab'
p868
aS'news'
p869
aS'agent'
p870
aS'dekho'
p871
aa(lp872
S'raha'
p873
aS'hai'
p874
aS'nahi'
p875
aS'rahi'
p876
aS'pa'
p877
aa(lp878
S'word'
p879
aS'express'
p880
aS'kunder'
p881
aS'activate'
p882
aS'le'
p883
aa(lp884
S'nhi'
p885
aS'mai'
p886
aS'hu'
p887
aS'koi'
p888
aS'kyo'
p889
aa(lp890
S'se'
p891
aS'ko'
p892
aS'aura'
p893
aS'hai'
p894
aS'apane'
p895
aa(lp896
S'hope'
p897
aS'rupa'
p898
aS'seat'
p899
aS'sri'
p900
aS'bada'
p901
aa(lp902
S'india'
p903
aS'people'
p904
aS'like'
p905
aS'just'
p906
aS'know'
p907
aa(lp908
S'mere'
p909
aS'aisa'
p910
aS'sa'
p911
aS'pr'
p912
aS'kaun'
p913
aa(lp914
S'ke'
p915
aS'ki'
p916
aS'hai'
p917
aS'mem'
p918
aS'ko'
p919
aa(lp920
S'ka'
p921
aS'happy'
p922
aS'birthday'
p923
aS'bana'
p924
aS'liya'
p925
aa(lp926
S'hi'
p927
aS'na'
p928
aS'hai'
p929
aS'ko'
p930
aS'ki'
p931
aa(lp932
S'ji'
p933
aS'maa'
p934
aS'jaise'
p935
aS'ninda'
p936
aS'karan'
p937
aa(lp938
S'happy'
p939
aS'birthday'
p940
aS'hinda'
p941
aS'presented'
p942
aS'karega'
p943
aa(lp944
S'legal'
p945
aS'didn'
p946
aS'request'
p947
aS'proper'
p948
aS'things'
p949
aa(lp950
S'tera'
p951
aS'legal'
p952
aS'feku'
p953
aS'youtube'
p954
aS'kar'
p955
aa(lp956
S'drama'
p957
aS'simha'
p958
aS'ki'
p959
aS'pani'
p960
aS'se'
p961
aa(lp962
S'kha'
p963
aS'upcoming'
p964
aS'fool'
p965
aS'mufti'
p966
aS'circulated'
p967
aa(lp968
S'jnu'
p969
aS'dekho'
p970
aS'kisi'
p971
aS'true'
p972
aS'android'
p973
aa(lp974
S'jaisa'
p975
aS'gye'
p976
aS'majority'
p977
aS'000'
p978
aS'america'
p979
aa(lp980
S'log'
p981
aS'hota'
p982
aS'pani'
p983
aS'na'
p984
aS'liye'
p985
aa(lp986
S'pata'
p987
aS'karana'
p988
aS'new'
p989
aS'ndtv'
p990
aS'sarakara'
p991
aa(lp992
S'don'
p993
aS'media'
p994
aS'state'
p995
aS'country'
p996
aS'want'
p997
aa(lp998
S'aur'
p999
aS'par'
p1000
aS'bhi'
p1001
aS'desh'
p1002
aS'chutiya'
p1003
aa(lp1004
S'bhi'
p1005
aS'le'
p1006
aS'phira'
p1007
aS'karem'
p1008
aS'bata'
p1009
aa(lp1010
S'lol'
p1011
aS'china'
p1012
aS'hua'
p1013
aS'link'
p1014
aS'pakistana'
p1015
aa(lp1016
S'video'
p1017
aS'kejriwal'
p1018
aS'hui'
p1019
aS'unke'
p1020
aS'maa'
p1021
aa(lp1022
S'time'
p1023
aS'nation'
p1024
aS'make'
p1025
aS'years'
p1026
aS'anti'
p1027
aa(lp1028
S'modi'
p1029
aS'anna'
p1030
aS'kejriwal'
p1031
aS'arvind'
p1032
aS'old'
p1033
aa(lp1034
S'com'
p1035
aS'https'
p1036
aS'mr'
p1037
aS'video'
p1038
aS'kumar'
p1039
aa(lp1040
S'use'
p1041
aS'hai'
p1042
aS'bhi'
p1043
aS'ke'
p1044
aS'kya'
p1045
aa(lp1046
S'hai'
p1047
aS'se'
p1048
aS'bhi'
p1049
aS'aura'
p1050
aS'nahim'
p1051
aa(lp1052
S'appeal'
p1053
aS'journalists'
p1054
aS'issued'
p1055
aS'nahid'
p1056
aS'headlines'
p1057
aa(lp1058
S'singh'
p1059
aS'bete'
p1060
aS'mobaila'
p1061
aS'army'
p1062
aS'hard'
p1063
aa(lp1064
S'agar'
p1065
aS'note'
p1066
aS'chup'
p1067
aS'tho'
p1068
aS'kutte'
p1069
aa(lp1070
S'chahiye'
p1071
aS'action'
p1072
aS'look'
p1073
aS'plz'
p1074
aS'lena'
p1075
aa(lp1076
S'ne'
p1077
aS'diya'
p1078
aS'sala'
p1079
aS'bola'
p1080
aS'ko'
p1081
aa(lp1082
S'karo'
p1083
aS'kabhi'
p1084
aS'sena'
p1085
aS'nimda'
p1086
aS'likha'
p1087
aa(lp1088
S'join'
p1089
aS'id'
p1090
aS'para'
p1091
aS'champcash'
p1092
aS'se'
p1093
aa(lp1094
S'hindu'
p1095
aS'muslim'
p1096
aS'hoga'
p1097
aS'cm'
p1098
aS'election'
p1099
aa(lp1100
S'kiya'
p1101
aS'tak'
p1102
aS'aaj'
p1103
aS'bhatt'
p1104
aS'kab'
p1105
aa(lp1106
S'bol'
p1107
aS'aisi'
p1108
aS'bhi'
p1109
aS'kya'
p1110
aS'baat'
p1111
aa(lp1112
S'chal'
p1113
aS'pm'
p1114
aS'job'
p1115
aS'punjab'
p1116
aS'ane'
p1117
aa(lp1118
S'happy'
p1119
aS'mam'
p1120
aS'11'
p1121
aS'birthday'
p1122
aS'12'
p1123
aa(lp1124
S'ho'
p1125
aS'aura'
p1126
aS'karem'
p1127
aS'app'
p1128
aS'member'
p1129
aa(lp1130
S'ye'
p1131
aS'sahi'
p1132
aS'jai'
p1133
aS'kaha'
p1134
aS'kuch'
p1135
aa(lp1136
S'opinion'
p1137
aS'express'
p1138
aS'vishwas'
p1139
aS'dimensions'
p1140
aS'mufti'
p1141
aa(lp1142
S'hota'
p1143
aS'di'
p1144
aS'taka'
p1145
aS'evam'
p1146
aS'rahega'
p1147
aa(lp1148
S'hain'
p1149
aS'yeh'
p1150
aS'kashmir'
p1151
aS'god'
p1152
aS'terrorist'
p1153
aa(lp1154
S'pm'
p1155
aS'money'
p1156
aS'understand'
p1157
aS'mein'
p1158
aS'love'
p1159
aa(lp1160
S'meri'
p1161
aS'just'
p1162
aS'comments'
p1163
aS'ditelsa'
p1164
aS'uska'
p1165
aa(lp1166
S'ki'
p1167
aS'eka'
p1168
aS'mem'
p1169
aS'para'
p1170
aS'bara'
p1171
aa(lp1172
S'unhem'
p1173
aS'nikala'
p1174
aS'dont'
p1175
aS'vishwas'
p1176
aS'pita'
p1177
aa(lp1178
S'desh'
p1179
aS'nahi'
p1180
aS'ko'
p1181
aS'ho'
p1182
aS'wale'
p1183
aa(lp1184
S'issue'
p1185
aS'pr'
p1186
aS'life'
p1187
aS'bilkul'
p1188
aS'presented'
p1189
aa(lp1190
S'news'
p1191
aS'http'
p1192
aS'ndtv'
p1193
aS'com'
p1194
aS'sad'
p1195
aa(lp1196
S'hai'
p1197
aS'ka'
p1198
aS'ko'
p1199
aS'ke'
p1200
aS'ki'
p1201
aa.